; Function Attrs: mustprogress uwtable
define noundef i64 @_Z15fast_rv64e_xoriP11processor_t6insn_tm(ptr nocapture noundef %0, i64 %1, i64 noundef %2) local_unnamed_addr #5 personality ptr @__gxx_personality_v0 {
  %4 = shl i64 %1, 32
  %5 = ashr i64 %4, 52
  %6 = lshr i64 %1, 15
  %7 = and i64 %6, 31
  %8 = icmp ugt i64 %7, 15
  br i1 %8, label %9, label %14

9:                                                ; preds = %3
  %10 = tail call ptr @__cxa_allocate_exception(i64 32) #16
  %11 = getelementptr inbounds i8, ptr %10, i64 8
  store i64 2, ptr %11, align 8
  %12 = getelementptr inbounds i8, ptr %10, i64 16
  store i8 0, ptr %12, align 8
  %13 = getelementptr inbounds i8, ptr %10, i64 24
  store i64 %1, ptr %13, align 8
  store ptr getelementptr inbounds ({ [12 x ptr] }, ptr @_ZTV24trap_illegal_instruction, i64 0, i32 0, i64 2), ptr %10, align 8
  tail call void @__cxa_throw(ptr nonnull %10, ptr nonnull @_ZTI24trap_illegal_instruction, ptr nonnull @_ZN24trap_illegal_instructionD2Ev) #17
  unreachable

14:                                               ; preds = %3
  %15 = getelementptr inbounds i8, ptr %0, i64 120
  %16 = lshr i64 %1, 7
  %17 = and i64 %16, 31
  %18 = icmp ugt i64 %17, 15
  br i1 %18, label %19, label %24

19:                                               ; preds = %14
  %20 = tail call ptr @__cxa_allocate_exception(i64 32) #16
  %21 = getelementptr inbounds i8, ptr %20, i64 8
  store i64 2, ptr %21, align 8
  %22 = getelementptr inbounds i8, ptr %20, i64 16
  store i8 0, ptr %22, align 8
  %23 = getelementptr inbounds i8, ptr %20, i64 24
  store i64 %1, ptr %23, align 8
  store ptr getelementptr inbounds ({ [12 x ptr] }, ptr @_ZTV24trap_illegal_instruction, i64 0, i32 0, i64 2), ptr %20, align 8
  tail call void @__cxa_throw(ptr nonnull %20, ptr nonnull @_ZTI24trap_illegal_instruction, ptr nonnull @_ZN24trap_illegal_instructionD2Ev) #17
  unreachable

24:                                               ; preds = %14
  %.not.i = icmp eq i64 %17, 0
  br i1 %.not.i, label %_ZN9regfile_tImLm32ELb1EE5writeEmm.exit, label %25

25:                                               ; preds = %24
  %26 = getelementptr inbounds [32 x i64], ptr %15, i64 0, i64 %7
  %27 = load i64, ptr %26, align 8
  %28 = xor i64 %27, %5
  %29 = getelementptr inbounds [32 x i64], ptr %15, i64 0, i64 %17
  store i64 %28, ptr %29, align 8
  br label %_ZN9regfile_tImLm32ELb1EE5writeEmm.exit

_ZN9regfile_tImLm32ELb1EE5writeEmm.exit:          ; preds = %24, %25
  %30 = add i64 %2, 4
  ret i64 %30
}